target datalayout = "e-m:e-p270:32:32-p271:32:32-p272:64:64-i64:64-i128:128-f80:128-n8:16:32:64-S128"
target triple = "x86_64-pc-linux-gnu"

%struct.Agobj_s = type { %struct.Agtag_s, ptr }
%struct.Agtag_s = type { i32, i64 }
%struct.Agnodeinfo_t = type { %struct.Agrec_s, ptr, ptr, %struct.pointf_s, double, double, %struct.boxf, double, double, double, double, double, ptr, ptr, ptr, i8, i8, i8, i8, i32, i32, i32, ptr, double, i8, i8, ptr, ptr, i8, i64, i8, i8, i8, ptr, ptr, %struct.elist, %struct.elist, %struct.elist, %struct.elist, %struct.elist, ptr, i32, ptr, i32, i32, double, %struct.elist, %struct.elist, %struct.elist, %struct.elist, ptr, i32, i32, i32, [1 x double] }
%struct.Agrec_s = type { ptr, ptr }
%struct.pointf_s = type { double, double }
%struct.boxf = type { %struct.pointf_s, %struct.pointf_s }
%struct.elist = type { ptr, i64 }
%struct.rdata = type { i64, i64, i64, i64, ptr, double, double }
%struct.Agedge_s = type { %struct.Agobj_s, %struct.dtlink_s_, %struct.dtlink_s_, ptr }
%struct.dtlink_s_ = type { ptr, %union.anon }
%union.anon = type { ptr }

; Function Attrs: nounwind uwtable
define internal void @setNStepsToLeaf(ptr noundef %0, ptr noundef %1, ptr noundef %2) #0 {
  %4 = alloca ptr, align 8
  %5 = alloca ptr, align 8
  %6 = alloca ptr, align 8
  %7 = alloca ptr, align 8
  %8 = alloca i64, align 8
  %9 = alloca ptr, align 8
  store ptr %0, ptr %4, align 8, !tbaa !3
  store ptr %1, ptr %5, align 8, !tbaa !8
  store ptr %2, ptr %6, align 8, !tbaa !8
  call void @llvm.lifetime.start.p0(i64 8, ptr %7) #13
  call void @llvm.lifetime.start.p0(i64 8, ptr %8) #13
  %10 = load ptr, ptr %5, align 8, !tbaa !8
  %11 = getelementptr inbounds nuw %struct.Agobj_s, ptr %10, i32 0, i32 1
  %12 = load ptr, ptr %11, align 8, !tbaa !10
  %13 = getelementptr inbounds nuw %struct.Agnodeinfo_t, ptr %12, i32 0, i32 14
  %14 = load ptr, ptr %13, align 8, !tbaa !36
  %15 = getelementptr inbounds nuw %struct.rdata, ptr %14, i32 0, i32 0
  %16 = load i64, ptr %15, align 8, !tbaa !40
  %17 = add i64 %16, 1
  store i64 %17, ptr %8, align 8, !tbaa !31
  call void @llvm.lifetime.start.p0(i64 8, ptr %9) #13
  %18 = load ptr, ptr %4, align 8, !tbaa !3
  %19 = load ptr, ptr %5, align 8, !tbaa !8
  %20 = call ptr @agfstedge(ptr noundef %18, ptr noundef %19)
  store ptr %20, ptr %9, align 8, !tbaa !55
  br label %21

21:                                               ; preds = %84, %3
  %22 = load ptr, ptr %9, align 8, !tbaa !55
  %23 = icmp ne ptr %22, null
  br i1 %23, label %25, label %24

24:                                               ; preds = %21
  call void @llvm.lifetime.end.p0(i64 8, ptr %9) #13
  br label %89

25:                                               ; preds = %21
  %26 = load ptr, ptr %9, align 8, !tbaa !55
  %27 = getelementptr inbounds nuw %struct.Agobj_s, ptr %26, i32 0, i32 0
  %28 = load i32, ptr %27, align 8
  %29 = and i32 %28, 3
  %30 = icmp eq i32 %29, 3
  br i1 %30, label %31, label %33

31:                                               ; preds = %25
  %32 = load ptr, ptr %9, align 8, !tbaa !55
  br label %36

33:                                               ; preds = %25
  %34 = load ptr, ptr %9, align 8, !tbaa !55
  %35 = getelementptr inbounds %struct.Agedge_s, ptr %34, i64 1
  br label %36

36:                                               ; preds = %33, %31
  %37 = phi ptr [ %32, %31 ], [ %35, %33 ]
  %38 = getelementptr inbounds nuw %struct.Agedge_s, ptr %37, i32 0, i32 3
  %39 = load ptr, ptr %38, align 8, !tbaa !56
  store ptr %39, ptr %7, align 8, !tbaa !8
  %40 = load ptr, ptr %5, align 8, !tbaa !8
  %41 = icmp eq ptr %39, %40
  br i1 %41, label %42, label %57

42:                                               ; preds = %36
  %43 = load ptr, ptr %9, align 8, !tbaa !55
  %44 = getelementptr inbounds nuw %struct.Agobj_s, ptr %43, i32 0, i32 0
  %45 = load i32, ptr %44, align 8
  %46 = and i32 %45, 3
  %47 = icmp eq i32 %46, 2
  br i1 %47, label %48, label %50

48:                                               ; preds = %42
  %49 = load ptr, ptr %9, align 8, !tbaa !55
  br label %53

50:                                               ; preds = %42
  %51 = load ptr, ptr %9, align 8, !tbaa !55
  %52 = getelementptr inbounds %struct.Agedge_s, ptr %51, i64 -1
  br label %53

53:                                               ; preds = %50, %48
  %54 = phi ptr [ %49, %48 ], [ %52, %50 ]
  %55 = getelementptr inbounds nuw %struct.Agedge_s, ptr %54, i32 0, i32 3
  %56 = load ptr, ptr %55, align 8, !tbaa !56
  store ptr %56, ptr %7, align 8, !tbaa !8
  br label %57

57:                                               ; preds = %53, %36
  %58 = load ptr, ptr %6, align 8, !tbaa !8
  %59 = load ptr, ptr %7, align 8, !tbaa !8
  %60 = icmp eq ptr %58, %59
  br i1 %60, label %61, label %62

61:                                               ; preds = %57
  br label %84

62:                                               ; preds = %57
  %63 = load i64, ptr %8, align 8, !tbaa !31
  %64 = load ptr, ptr %7, align 8, !tbaa !8
  %65 = getelementptr inbounds nuw %struct.Agobj_s, ptr %64, i32 0, i32 1
  %66 = load ptr, ptr %65, align 8, !tbaa !10
  %67 = getelementptr inbounds nuw %struct.Agnodeinfo_t, ptr %66, i32 0, i32 14
  %68 = load ptr, ptr %67, align 8, !tbaa !36
  %69 = getelementptr inbounds nuw %struct.rdata, ptr %68, i32 0, i32 0
  %70 = load i64, ptr %69, align 8, !tbaa !40
  %71 = icmp ult i64 %63, %70
  br i1 %71, label %72, label %83

72:                                               ; preds = %62
  %73 = load i64, ptr %8, align 8, !tbaa !31
  %74 = load ptr, ptr %7, align 8, !tbaa !8
  %75 = getelementptr inbounds nuw %struct.Agobj_s, ptr %74, i32 0, i32 1
  %76 = load ptr, ptr %75, align 8, !tbaa !10
  %77 = getelementptr inbounds nuw %struct.Agnodeinfo_t, ptr %76, i32 0, i32 14
  %78 = load ptr, ptr %77, align 8, !tbaa !36
  %79 = getelementptr inbounds nuw %struct.rdata, ptr %78, i32 0, i32 0
  store i64 %73, ptr %79, align 8, !tbaa !40
  %80 = load ptr, ptr %4, align 8, !tbaa !3
  %81 = load ptr, ptr %7, align 8, !tbaa !8
  %82 = load ptr, ptr %5, align 8, !tbaa !8
  call void @setNStepsToLeaf(ptr noundef %80, ptr noundef %81, ptr noundef %82)
  br label %83

83:                                               ; preds = %72, %62
  br label %84

84:                                               ; preds = %83, %61
  %85 = load ptr, ptr %4, align 8, !tbaa !3
  %86 = load ptr, ptr %9, align 8, !tbaa !55
  %87 = load ptr, ptr %5, align 8, !tbaa !8
  %88 = call ptr @agnxtedge(ptr noundef %85, ptr noundef %86, ptr noundef %87)
  store ptr %88, ptr %9, align 8, !tbaa !55
  br label %21, !llvm.loop !61

89:                                               ; preds = %24
  call void @llvm.lifetime.end.p0(i64 8, ptr %8) #13
  call void @llvm.lifetime.end.p0(i64 8, ptr %7) #13
  ret void
}