; Function Attrs: nounwind uwtable
define internal fastcc void @setNStepsToLeaf(ptr noundef %0, ptr noundef %1, ptr noundef readnone captures(address) %2) unnamed_addr #0 {
  %4 = getelementptr inbounds nuw i8, ptr %1, i64 16
  %5 = load ptr, ptr %4, align 8, !tbaa !3
  %6 = getelementptr inbounds nuw i8, ptr %5, i64 152
  %7 = load ptr, ptr %6, align 8, !tbaa !28
  %8 = load i64, ptr %7, align 8, !tbaa !38
  %9 = add i64 %8, 1
  %10 = tail call ptr @agfstedge(ptr noundef %0, ptr noundef %1) #18
  %.not26 = icmp eq ptr %10, null
  br i1 %.not26, label %._crit_edge, label %.lr.ph

._crit_edge:                                      ; preds = %33, %3
  ret void

.lr.ph:                                           ; preds = %3, %33
  %.027 = phi ptr [ %34, %33 ], [ %10, %3 ]
  %11 = load i32, ptr %.027, align 8
  %12 = and i32 %11, 3
  %13 = icmp eq i32 %12, 3
  %.idx = select i1 %13, i64 0, i64 64
  %14 = getelementptr inbounds nuw i8, ptr %.027, i64 %.idx
  %15 = getelementptr inbounds nuw i8, ptr %14, i64 56
  %16 = load ptr, ptr %15, align 8, !tbaa !32
  %17 = icmp eq ptr %16, %1
  br i1 %17, label %18, label %23

18:                                               ; preds = %.lr.ph
  %19 = icmp eq i32 %12, 2
  %.idx25 = select i1 %19, i64 0, i64 -64
  %20 = getelementptr inbounds i8, ptr %.027, i64 %.idx25
  %21 = getelementptr inbounds nuw i8, ptr %20, i64 56
  %22 = load ptr, ptr %21, align 8, !tbaa !32
  br label %23

23:                                               ; preds = %18, %.lr.ph
  %.022 = phi ptr [ %22, %18 ], [ %16, %.lr.ph ]
  %24 = icmp eq ptr %2, %.022
  br i1 %24, label %33, label %25

25:                                               ; preds = %23
  %26 = getelementptr inbounds nuw i8, ptr %.022, i64 16
  %27 = load ptr, ptr %26, align 8, !tbaa !3
  %28 = getelementptr inbounds nuw i8, ptr %27, i64 152
  %29 = load ptr, ptr %28, align 8, !tbaa !28
  %30 = load i64, ptr %29, align 8, !tbaa !38
  %31 = icmp ult i64 %9, %30
  br i1 %31, label %32, label %33

32:                                               ; preds = %25
  store i64 %9, ptr %29, align 8, !tbaa !38
  tail call fastcc void @setNStepsToLeaf(ptr noundef %0, ptr noundef nonnull %.022, ptr noundef %1)
  br label %33

33:                                               ; preds = %25, %32, %23
  %34 = tail call ptr @agnxtedge(ptr noundef %0, ptr noundef nonnull %.027, ptr noundef %1) #18
  %.not = icmp eq ptr %34, null
  br i1 %.not, label %._crit_edge, label %.lr.ph, !llvm.loop !69
}